target datalayout = "e-m:e-p270:32:32-p271:32:32-p272:64:64-i64:64-i128:128-f80:128-n8:16:32:64-S128"
target triple = "x86_64-pc-linux-gnu"

@hf_zbee_zcl_appl_ctrl_time = internal global i32 0, align 4
@ett_zbee_zcl_appl_ctrl_time = internal global i32 0, align 4
@dissect_zcl_appl_ctrl_attr_data.flags = internal constant [4 x ptr] [ptr @hf_zbee_zcl_appl_ctrl_time_mm, ptr @hf_zbee_zcl_appl_ctrl_time_encoding_type, ptr @hf_zbee_zcl_appl_ctrl_time_hh, ptr null], align 16

; Function Attrs: null_pointer_is_valid sspstrong uwtable
define internal void @dissect_zcl_appl_ctrl_attr_data(ptr noundef %0, ptr noundef %1, ptr noundef %2, i16 noundef zeroext %3, i32 noundef %4, i1 noundef zeroext %5) #0 {
  %7 = alloca ptr, align 8
  %8 = alloca ptr, align 8
  %9 = alloca ptr, align 8
  %10 = alloca i16, align 2
  %11 = alloca i32, align 4
  %12 = alloca i8, align 1
  store ptr %0, ptr %7, align 8
  store ptr %1, ptr %8, align 8
  store ptr %2, ptr %9, align 8
  store i16 %3, ptr %10, align 2
  store i32 %4, ptr %11, align 4
  %13 = zext i1 %5 to i8
  store i8 %13, ptr %12, align 1
  %14 = load i16, ptr %10, align 2
  %15 = zext i16 %14 to i32
  switch i32 %15, label %27 [
    i32 0, label %16
    i32 1, label %16
    i32 2, label %16
  ]

16:                                               ; preds = %6, %6, %6
  %17 = load ptr, ptr %7, align 8
  %18 = load ptr, ptr %8, align 8
  %19 = load ptr, ptr %9, align 8
  %20 = load i32, ptr %19, align 4
  %21 = load i32, ptr @hf_zbee_zcl_appl_ctrl_time, align 4
  %22 = load i32, ptr @ett_zbee_zcl_appl_ctrl_time, align 4
  %23 = call ptr @proto_tree_add_bitmask(ptr noundef %17, ptr noundef %18, i32 noundef %20, i32 noundef %21, i32 noundef %22, ptr noundef @dissect_zcl_appl_ctrl_attr_data.flags, i32 noundef -2147483648)
  %24 = load ptr, ptr %9, align 8
  %25 = load i32, ptr %24, align 4
  %26 = add i32 %25, 2
  store i32 %26, ptr %24, align 4
  br label %34

27:                                               ; preds = %6
  %28 = load ptr, ptr %8, align 8
  %29 = load ptr, ptr %7, align 8
  %30 = load ptr, ptr %9, align 8
  %31 = load i32, ptr %11, align 4
  %32 = load i8, ptr %12, align 1, !range !6, !noundef !7
  %33 = trunc i8 %32 to i1
  call void @dissect_zcl_attr_data(ptr noundef %28, ptr noundef %29, ptr noundef %30, i32 noundef %31, i1 noundef zeroext %33)
  br label %34

34:                                               ; preds = %27, %16
  ret void
}