; Function Attrs: null_pointer_is_valid sspstrong uwtable
define internal void @dissect_zcl_appl_ctrl_attr_data(ptr noundef %0, ptr noundef %1, ptr noundef %2, i16 noundef zeroext %3, i32 noundef %4, i1 noundef zeroext %5) #0 {
  %switch = icmp ult i16 %3, 3
  br i1 %switch, label %7, label %14

7:                                                ; preds = %6
  %8 = load i32, ptr %2, align 4
  %9 = load i32, ptr @hf_zbee_zcl_appl_ctrl_time, align 4
  %10 = load i32, ptr @ett_zbee_zcl_appl_ctrl_time, align 4
  %11 = tail call ptr @proto_tree_add_bitmask(ptr noundef %0, ptr noundef %1, i32 noundef %8, i32 noundef %9, i32 noundef %10, ptr noundef nonnull @dissect_zcl_appl_ctrl_attr_data.flags, i32 noundef -2147483648)
  %12 = load i32, ptr %2, align 4
  %13 = add i32 %12, 2
  store i32 %13, ptr %2, align 4
  br label %15

14:                                               ; preds = %6
  tail call void @dissect_zcl_attr_data(ptr noundef %1, ptr noundef %0, ptr noundef %2, i32 noundef %4, i1 noundef zeroext %5)
  br label %15

15:                                               ; preds = %14, %7
  ret void
}